target datalayout = "e-m:e-p270:32:32-p271:32:32-p272:64:64-i64:64-i128:128-f80:128-n8:16:32:64-S128"
target triple = "x86_64-pc-linux-gnu"

%class.MachNode = type { %class.Node.base, i8, i16, ptr }
%class.Node.base = type <{ ptr, ptr, ptr, i32, i32, i32, i32, i32, i32, i32 }>
%class.ReallocMark = type { i8 }
%class.MachReturnNode = type { %class.MachNode, ptr, %class.ReallocMark, ptr }
%class.MachCallNode = type <{ %class.MachSafePointNode.base, [3 x i8], ptr, ptr, float, i8, [3 x i8] }>
%class.MachSafePointNode.base = type <{ %class.MachReturnNode, ptr, ptr, i32, i8 }>
%class.MachCallJavaNode = type <{ %class.MachCallNode.base, [3 x i8], ptr, i8, i8, i8, i8, [4 x i8] }>
%class.MachCallNode.base = type <{ %class.MachSafePointNode.base, [3 x i8], ptr, ptr, float, i8 }>
%class.MachCallStaticJavaNode = type { %class.MachCallJavaNode.base, ptr }
%class.MachCallJavaNode.base = type <{ %class.MachCallNode.base, [3 x i8], ptr, i8, i8, i8, i8 }>

; Function Attrs: mustprogress nounwind uwtable
define linkonce_odr hidden noundef zeroext i1 @_ZNK10ciMetadata6equalsEPS_(ptr noundef nonnull align 8 dereferenceable(24) %0, ptr noundef %1) #1 comdat align 2 {
  %3 = alloca ptr, align 8
  %4 = alloca ptr, align 8
  store ptr %0, ptr %3, align 8
  store ptr %1, ptr %4, align 8
  %5 = load ptr, ptr %3, align 8
  %6 = load ptr, ptr %4, align 8
  %7 = icmp eq ptr %5, %6
  ret i1 %7
}

; Function Attrs: mustprogress nounwind uwtable
define hidden noundef zeroext i1 @_ZNK12MachCallNode3cmpERK4Node(ptr noundef nonnull align 8 dereferenceable(133) %0, ptr noundef nonnull align 8 dereferenceable(52) %1) unnamed_addr #1 align 2 {
  %3 = alloca ptr, align 8
  %4 = alloca ptr, align 8
  store ptr %0, ptr %3, align 8
  store ptr %1, ptr %4, align 8
  %5 = load ptr, ptr %3, align 8
  %6 = getelementptr inbounds %class.MachCallNode, ptr %5, i32 0, i32 2
  %7 = load ptr, ptr %6, align 8
  %8 = load ptr, ptr %4, align 8
  %9 = getelementptr inbounds %class.MachCallNode, ptr %8, i32 0, i32 2
  %10 = load ptr, ptr %9, align 8
  %11 = icmp eq ptr %7, %10
  ret i1 %11
}

; Function Attrs: mustprogress nounwind uwtable
define hidden noundef zeroext i1 @_ZNK16MachCallJavaNode3cmpERK4Node(ptr noundef nonnull align 8 dereferenceable(148) %0, ptr noundef nonnull align 8 dereferenceable(52) %1) unnamed_addr #1 align 2 {
  %3 = alloca ptr, align 8
  %4 = alloca ptr, align 8
  %5 = alloca ptr, align 8
  store ptr %0, ptr %3, align 8
  store ptr %1, ptr %4, align 8
  %6 = load ptr, ptr %3, align 8
  %7 = load ptr, ptr %4, align 8
  store ptr %7, ptr %5, align 8
  %8 = load ptr, ptr %5, align 8
  %9 = call noundef zeroext i1 @_ZNK12MachCallNode3cmpERK4Node(ptr noundef nonnull align 8 dereferenceable(133) %6, ptr noundef nonnull align 8 dereferenceable(52) %8)
  br i1 %9, label %10, label %28

10:                                               ; preds = %2
  %11 = getelementptr inbounds %class.MachCallJavaNode, ptr %6, i32 0, i32 2
  %12 = load ptr, ptr %11, align 8
  %13 = load ptr, ptr %5, align 8
  %14 = getelementptr inbounds %class.MachCallJavaNode, ptr %13, i32 0, i32 2
  %15 = load ptr, ptr %14, align 8
  %16 = call noundef zeroext i1 @_ZNK10ciMetadata6equalsEPS_(ptr noundef nonnull align 8 dereferenceable(24) %12, ptr noundef %15)
  br i1 %16, label %17, label %28

17:                                               ; preds = %10
  %18 = getelementptr inbounds %class.MachCallJavaNode, ptr %6, i32 0, i32 3
  %19 = load i8, ptr %18, align 8
  %20 = trunc i8 %19 to i1
  %21 = zext i1 %20 to i32
  %22 = load ptr, ptr %5, align 8
  %23 = getelementptr inbounds %class.MachCallJavaNode, ptr %22, i32 0, i32 3
  %24 = load i8, ptr %23, align 8
  %25 = trunc i8 %24 to i1
  %26 = zext i1 %25 to i32
  %27 = icmp eq i32 %21, %26
  br label %28

28:                                               ; preds = %17, %10, %2
  %29 = phi i1 [ false, %10 ], [ false, %2 ], [ %27, %17 ]
  ret i1 %29
}

; Function Attrs: mustprogress nounwind uwtable
define hidden noundef zeroext i1 @_ZNK22MachCallStaticJavaNode3cmpERK4Node(ptr noundef nonnull align 8 dereferenceable(160) %0, ptr noundef nonnull align 8 dereferenceable(52) %1) unnamed_addr #1 align 2 {
  %3 = alloca ptr, align 8
  %4 = alloca ptr, align 8
  %5 = alloca ptr, align 8
  store ptr %0, ptr %3, align 8
  store ptr %1, ptr %4, align 8
  %6 = load ptr, ptr %3, align 8
  %7 = load ptr, ptr %4, align 8
  store ptr %7, ptr %5, align 8
  %8 = load ptr, ptr %5, align 8
  %9 = call noundef zeroext i1 @_ZNK16MachCallJavaNode3cmpERK4Node(ptr noundef nonnull align 8 dereferenceable(148) %6, ptr noundef nonnull align 8 dereferenceable(52) %8)
  br i1 %9, label %10, label %17

10:                                               ; preds = %2
  %11 = getelementptr inbounds %class.MachCallStaticJavaNode, ptr %6, i32 0, i32 1
  %12 = load ptr, ptr %11, align 8
  %13 = load ptr, ptr %5, align 8
  %14 = getelementptr inbounds %class.MachCallStaticJavaNode, ptr %13, i32 0, i32 1
  %15 = load ptr, ptr %14, align 8
  %16 = icmp eq ptr %12, %15
  br label %17

17:                                               ; preds = %10, %2
  %18 = phi i1 [ false, %2 ], [ %16, %10 ]
  ret i1 %18
}