; Function Attrs: mustprogress nofree norecurse nosync nounwind willreturn memory(argmem: read) uwtable
define hidden noundef zeroext i1 @_ZNK22MachCallStaticJavaNode3cmpERK4Node(ptr nocapture noundef nonnull readonly align 8 dereferenceable(160) %0, ptr nocapture noundef nonnull readonly align 8 dereferenceable(52) %1) unnamed_addr #5 align 2 {
  %3 = getelementptr inbounds i8, ptr %0, i64 112
  %4 = load ptr, ptr %3, align 8
  %5 = getelementptr inbounds i8, ptr %1, i64 112
  %6 = load ptr, ptr %5, align 8
  %7 = icmp eq ptr %4, %6
  br i1 %7, label %8, label %_ZNK16MachCallJavaNode3cmpERK4Node.exit.thread

8:                                                ; preds = %2
  %9 = getelementptr inbounds i8, ptr %0, i64 136
  %10 = load ptr, ptr %9, align 8
  %11 = getelementptr inbounds i8, ptr %1, i64 136
  %12 = load ptr, ptr %11, align 8
  %13 = icmp eq ptr %10, %12
  br i1 %13, label %_ZNK16MachCallJavaNode3cmpERK4Node.exit, label %_ZNK16MachCallJavaNode3cmpERK4Node.exit.thread

_ZNK16MachCallJavaNode3cmpERK4Node.exit:          ; preds = %8
  %14 = getelementptr inbounds i8, ptr %0, i64 144
  %15 = load i8, ptr %14, align 8
  %16 = getelementptr inbounds i8, ptr %1, i64 144
  %17 = load i8, ptr %16, align 8
  %18 = xor i8 %17, %15
  %19 = and i8 %18, 1
  %20 = icmp eq i8 %19, 0
  br i1 %20, label %21, label %_ZNK16MachCallJavaNode3cmpERK4Node.exit.thread

21:                                               ; preds = %_ZNK16MachCallJavaNode3cmpERK4Node.exit
  %22 = getelementptr inbounds i8, ptr %0, i64 152
  %23 = load ptr, ptr %22, align 8
  %24 = getelementptr inbounds i8, ptr %1, i64 152
  %25 = load ptr, ptr %24, align 8
  %26 = icmp eq ptr %23, %25
  br label %_ZNK16MachCallJavaNode3cmpERK4Node.exit.thread

_ZNK16MachCallJavaNode3cmpERK4Node.exit.thread:   ; preds = %2, %8, %21, %_ZNK16MachCallJavaNode3cmpERK4Node.exit
  %27 = phi i1 [ false, %_ZNK16MachCallJavaNode3cmpERK4Node.exit ], [ %26, %21 ], [ false, %8 ], [ false, %2 ]
  ret i1 %27
}